; Function Attrs: mustprogress nofree norecurse nosync nounwind willreturn memory(argmem: readwrite) uwtable
define hidden noundef zeroext i1 @_ZN7nanogui7TextBox16mouse_drag_eventERKNS_5ArrayIiLm2EEES4_ii(ptr nocapture noundef nonnull align 8 dereferenceable(440) %0, ptr nocapture noundef nonnull readonly align 4 dereferenceable(8) %1, ptr nocapture nonnull readnone align 4 %2, i32 %3, i32 %4) unnamed_addr #10 align 2 {
  %6 = getelementptr inbounds i8, ptr %0, i64 400
  %7 = load i64, ptr %1, align 4
  store i64 %7, ptr %6, align 8
  %8 = getelementptr inbounds i8, ptr %0, i64 416
  %9 = load i64, ptr %1, align 4
  store i64 %9, ptr %8, align 8
  %10 = getelementptr inbounds i8, ptr %0, i64 140
  %11 = load i8, ptr %10, align 4
  %12 = and i8 %11, 1
  %.not = icmp eq i8 %12, 0
  br i1 %.not, label %17, label %13

13:                                               ; preds = %5
  %14 = getelementptr inbounds i8, ptr %0, i64 90
  %15 = load i8, ptr %14, align 2
  %16 = and i8 %15, 1
  %.not4 = icmp eq i8 %16, 0
  br i1 %.not4, label %17, label %18

17:                                               ; preds = %13, %5
  br label %18

18:                                               ; preds = %13, %17
  %.0 = phi i1 [ false, %17 ], [ true, %13 ]
  ret i1 %.0
}